target datalayout = "e-m:e-p270:32:32-p271:32:32-p272:64:64-i64:64-i128:128-f80:128-n8:16:32:64-S128"
target triple = "x86_64-pc-linux-gnu"

%struct.uv_handle_s = type { ptr, ptr, i32, ptr, [2 x ptr], %union.anon.0, ptr, i32 }
%union.anon.0 = type { [4 x ptr] }
%struct.uv_loop_s = type { ptr, i32, [2 x ptr], %union.anon.1, ptr, i32, i64, i32, [2 x ptr], [2 x ptr], ptr, i32, i32, [2 x ptr], %union.pthread_mutex_t, %struct.uv_async_s, %union.pthread_rwlock_t, ptr, [2 x ptr], [2 x ptr], [2 x ptr], [2 x ptr], [2 x ptr], ptr, %struct.uv__io_s, i32, %struct.anon, i64, i64, [2 x i32], %struct.uv__io_s, %struct.uv_signal_s, i32, %struct.uv__io_s, ptr, i32 }
%union.anon.1 = type { ptr }
%union.pthread_mutex_t = type { %struct.__pthread_mutex_s }
%struct.__pthread_mutex_s = type { i32, i32, i32, i32, i32, i16, i16, %struct.__pthread_internal_list }
%struct.__pthread_internal_list = type { ptr, ptr }
%struct.uv_async_s = type { ptr, ptr, i32, ptr, [2 x ptr], %union.anon.2, ptr, i32, ptr, [2 x ptr], i32 }
%union.anon.2 = type { [4 x ptr] }
%union.pthread_rwlock_t = type { %struct.__pthread_rwlock_arch_t }
%struct.__pthread_rwlock_arch_t = type { i32, i32, i32, i32, i32, i32, i32, i32, i8, [7 x i8], i64, i32 }
%struct.anon = type { ptr, i32 }
%struct.uv_signal_s = type { ptr, ptr, i32, ptr, [2 x ptr], %union.anon.3, ptr, i32, ptr, i32, %struct.anon.4, i32, i32 }
%union.anon.3 = type { [4 x ptr] }
%struct.anon.4 = type { ptr, ptr, ptr, i32 }
%struct.uv__io_s = type { ptr, [2 x ptr], [2 x ptr], i32, i32, i32 }
%struct.uv_stream_s = type { ptr, ptr, i32, ptr, [2 x ptr], %union.anon, ptr, i32, i64, ptr, ptr, ptr, ptr, %struct.uv__io_s, [2 x ptr], [2 x ptr], ptr, i32, i32, ptr }
%union.anon = type { [4 x ptr] }
%struct.uv_buf_t = type { ptr, i64 }
%struct.uv_write_s = type { ptr, i32, [6 x ptr], ptr, ptr, ptr, [2 x ptr], i32, ptr, i32, i32, [4 x %struct.uv_buf_t] }
%struct.uv_pipe_s = type { ptr, ptr, i32, ptr, [2 x ptr], %union.anon.5, ptr, i32, i64, ptr, ptr, ptr, ptr, %struct.uv__io_s, [2 x ptr], [2 x ptr], ptr, i32, i32, ptr, i32, ptr }
%union.anon.5 = type { [4 x ptr] }
%struct.uv_udp_s = type { ptr, ptr, i32, ptr, [2 x ptr], %union.anon.6, ptr, i32, i64, i64, ptr, ptr, %struct.uv__io_s, [2 x ptr], [2 x ptr] }
%union.anon.6 = type { [4 x ptr] }

; Function Attrs: nounwind uwtable
define internal i32 @uv__handle_fd(ptr noundef %0) #0 {
  %2 = alloca i32, align 4
  %3 = alloca ptr, align 8
  store ptr %0, ptr %3, align 8
  %4 = load ptr, ptr %3, align 8
  %5 = getelementptr inbounds %struct.uv_handle_s, ptr %4, i32 0, i32 2
  %6 = load i32, ptr %5, align 8
  switch i32 %6, label %17 [
    i32 7, label %7
    i32 12, label %7
    i32 15, label %12
  ]

7:                                                ; preds = %1, %1
  %8 = load ptr, ptr %3, align 8
  %9 = getelementptr inbounds %struct.uv_stream_s, ptr %8, i32 0, i32 13
  %10 = getelementptr inbounds %struct.uv__io_s, ptr %9, i32 0, i32 5
  %11 = load i32, ptr %10, align 8
  store i32 %11, ptr %2, align 4
  br label %18

12:                                               ; preds = %1
  %13 = load ptr, ptr %3, align 8
  %14 = getelementptr inbounds %struct.uv_udp_s, ptr %13, i32 0, i32 12
  %15 = getelementptr inbounds %struct.uv__io_s, ptr %14, i32 0, i32 5
  %16 = load i32, ptr %15, align 8
  store i32 %16, ptr %2, align 4
  br label %18

17:                                               ; preds = %1
  store i32 -1, ptr %2, align 4
  br label %18

18:                                               ; preds = %17, %12, %7
  %19 = load i32, ptr %2, align 4
  ret i32 %19
}

; Function Attrs: nounwind uwtable
define internal void @uv__stream_osx_interrupt_select(ptr noundef %0) #0 {
  %2 = alloca ptr, align 8
  store ptr %0, ptr %2, align 8
  ret void
}

; Function Attrs: nounwind uwtable
define internal i32 @uv__check_before_write(ptr noundef %0, i32 noundef %1, ptr noundef %2) #0 {
  %4 = alloca i32, align 4
  %5 = alloca ptr, align 8
  %6 = alloca i32, align 4
  %7 = alloca ptr, align 8
  store ptr %0, ptr %5, align 8
  store i32 %1, ptr %6, align 4
  store ptr %2, ptr %7, align 8
  %8 = load ptr, ptr %5, align 8
  %9 = getelementptr inbounds %struct.uv_stream_s, ptr %8, i32 0, i32 13
  %10 = getelementptr inbounds %struct.uv__io_s, ptr %9, i32 0, i32 5
  %11 = load i32, ptr %10, align 8
  %12 = icmp slt i32 %11, 0
  br i1 %12, label %13, label %14

13:                                               ; preds = %3
  store i32 -9, ptr %4, align 4
  br label %42

14:                                               ; preds = %3
  %15 = load ptr, ptr %5, align 8
  %16 = getelementptr inbounds %struct.uv_stream_s, ptr %15, i32 0, i32 7
  %17 = load i32, ptr %16, align 8
  %18 = and i32 %17, 32768
  %19 = icmp ne i32 %18, 0
  br i1 %19, label %21, label %20

20:                                               ; preds = %14
  store i32 -32, ptr %4, align 4
  br label %42

21:                                               ; preds = %14
  %22 = load ptr, ptr %7, align 8
  %23 = icmp ne ptr %22, null
  br i1 %23, label %24, label %41

24:                                               ; preds = %21
  %25 = load ptr, ptr %5, align 8
  %26 = getelementptr inbounds %struct.uv_stream_s, ptr %25, i32 0, i32 2
  %27 = load i32, ptr %26, align 8
  %28 = icmp ne i32 %27, 7
  br i1 %28, label %34, label %29

29:                                               ; preds = %24
  %30 = load ptr, ptr %5, align 8
  %31 = getelementptr inbounds %struct.uv_pipe_s, ptr %30, i32 0, i32 20
  %32 = load i32, ptr %31, align 8
  %33 = icmp ne i32 %32, 0
  br i1 %33, label %35, label %34

34:                                               ; preds = %29, %24
  store i32 -22, ptr %4, align 4
  br label %42

35:                                               ; preds = %29
  %36 = load ptr, ptr %7, align 8
  %37 = call i32 @uv__handle_fd(ptr noundef %36)
  %38 = icmp slt i32 %37, 0
  br i1 %38, label %39, label %40

39:                                               ; preds = %35
  store i32 -9, ptr %4, align 4
  br label %42

40:                                               ; preds = %35
  br label %41

41:                                               ; preds = %40, %21
  store i32 0, ptr %4, align 4
  br label %42

42:                                               ; preds = %41, %39, %34, %20, %13
  %43 = load i32, ptr %4, align 4
  ret i32 %43
}

; Function Attrs: nounwind uwtable
define dso_local i32 @uv_write2(ptr noundef %0, ptr noundef %1, ptr noundef %2, i32 noundef %3, ptr noundef %4, ptr noundef %5) #0 {
  %7 = alloca i32, align 4
  %8 = alloca ptr, align 8
  %9 = alloca ptr, align 8
  %10 = alloca ptr, align 8
  %11 = alloca i32, align 4
  %12 = alloca ptr, align 8
  %13 = alloca ptr, align 8
  %14 = alloca i32, align 4
  %15 = alloca i32, align 4
  store ptr %0, ptr %8, align 8
  store ptr %1, ptr %9, align 8
  store ptr %2, ptr %10, align 8
  store i32 %3, ptr %11, align 4
  store ptr %4, ptr %12, align 8
  store ptr %5, ptr %13, align 8
  %16 = load ptr, ptr %9, align 8
  %17 = load i32, ptr %11, align 4
  %18 = load ptr, ptr %12, align 8
  %19 = call i32 @uv__check_before_write(ptr noundef %16, i32 noundef %17, ptr noundef %18)
  store i32 %19, ptr %15, align 4
  %20 = load i32, ptr %15, align 4
  %21 = icmp slt i32 %20, 0
  br i1 %21, label %22, label %24

22:                                               ; preds = %6
  %23 = load i32, ptr %15, align 4
  store i32 %23, ptr %7, align 4
  br label %153

24:                                               ; preds = %6
  %25 = load ptr, ptr %9, align 8
  %26 = getelementptr inbounds %struct.uv_stream_s, ptr %25, i32 0, i32 8
  %27 = load i64, ptr %26, align 8
  %28 = icmp eq i64 %27, 0
  %29 = zext i1 %28 to i32
  store i32 %29, ptr %14, align 4
  br label %30

30:                                               ; preds = %24
  br label %31

31:                                               ; preds = %30
  %32 = load ptr, ptr %8, align 8
  %33 = getelementptr inbounds %struct.uv_write_s, ptr %32, i32 0, i32 1
  store i32 3, ptr %33, align 8
  br label %34

34:                                               ; preds = %31
  br label %35

35:                                               ; preds = %34
  %36 = load ptr, ptr %9, align 8
  %37 = getelementptr inbounds %struct.uv_stream_s, ptr %36, i32 0, i32 1
  %38 = load ptr, ptr %37, align 8
  %39 = getelementptr inbounds %struct.uv_loop_s, ptr %38, i32 0, i32 3
  %40 = load i32, ptr %39, align 8
  %41 = add i32 %40, 1
  store i32 %41, ptr %39, align 8
  br label %42

42:                                               ; preds = %35
  br label %43

43:                                               ; preds = %42
  %44 = load ptr, ptr %13, align 8
  %45 = load ptr, ptr %8, align 8
  %46 = getelementptr inbounds %struct.uv_write_s, ptr %45, i32 0, i32 3
  store ptr %44, ptr %46, align 8
  %47 = load ptr, ptr %9, align 8
  %48 = load ptr, ptr %8, align 8
  %49 = getelementptr inbounds %struct.uv_write_s, ptr %48, i32 0, i32 5
  store ptr %47, ptr %49, align 8
  %50 = load ptr, ptr %8, align 8
  %51 = getelementptr inbounds %struct.uv_write_s, ptr %50, i32 0, i32 10
  store i32 0, ptr %51, align 4
  %52 = load ptr, ptr %12, align 8
  %53 = load ptr, ptr %8, align 8
  %54 = getelementptr inbounds %struct.uv_write_s, ptr %53, i32 0, i32 4
  store ptr %52, ptr %54, align 8
  br label %55

55:                                               ; preds = %43
  %56 = load ptr, ptr %8, align 8
  %57 = getelementptr inbounds %struct.uv_write_s, ptr %56, i32 0, i32 6
  %58 = load ptr, ptr %8, align 8
  %59 = getelementptr inbounds %struct.uv_write_s, ptr %58, i32 0, i32 6
  %60 = getelementptr inbounds [2 x ptr], ptr %59, i64 0, i64 0
  store ptr %57, ptr %60, align 8
  %61 = load ptr, ptr %8, align 8
  %62 = getelementptr inbounds %struct.uv_write_s, ptr %61, i32 0, i32 6
  %63 = load ptr, ptr %8, align 8
  %64 = getelementptr inbounds %struct.uv_write_s, ptr %63, i32 0, i32 6
  %65 = getelementptr inbounds [2 x ptr], ptr %64, i64 0, i64 1
  store ptr %62, ptr %65, align 8
  br label %66

66:                                               ; preds = %55
  %67 = load ptr, ptr %8, align 8
  %68 = getelementptr inbounds %struct.uv_write_s, ptr %67, i32 0, i32 11
  %69 = getelementptr inbounds [4 x %struct.uv_buf_t], ptr %68, i64 0, i64 0
  %70 = load ptr, ptr %8, align 8
  %71 = getelementptr inbounds %struct.uv_write_s, ptr %70, i32 0, i32 8
  store ptr %69, ptr %71, align 8
  %72 = load i32, ptr %11, align 4
  %73 = zext i32 %72 to i64
  %74 = icmp ugt i64 %73, 4
  br i1 %74, label %75, label %82

75:                                               ; preds = %66
  %76 = load i32, ptr %11, align 4
  %77 = zext i32 %76 to i64
  %78 = mul i64 %77, 16
  %79 = call ptr @uv__malloc(i64 noundef %78)
  %80 = load ptr, ptr %8, align 8
  %81 = getelementptr inbounds %struct.uv_write_s, ptr %80, i32 0, i32 8
  store ptr %79, ptr %81, align 8
  br label %82

82:                                               ; preds = %75, %66
  %83 = load ptr, ptr %8, align 8
  %84 = getelementptr inbounds %struct.uv_write_s, ptr %83, i32 0, i32 8
  %85 = load ptr, ptr %84, align 8
  %86 = icmp eq ptr %85, null
  br i1 %86, label %87, label %88

87:                                               ; preds = %82
  store i32 -12, ptr %7, align 4
  br label %153

88:                                               ; preds = %82
  %89 = load ptr, ptr %8, align 8
  %90 = getelementptr inbounds %struct.uv_write_s, ptr %89, i32 0, i32 8
  %91 = load ptr, ptr %90, align 8
  %92 = load ptr, ptr %10, align 8
  %93 = load i32, ptr %11, align 4
  %94 = zext i32 %93 to i64
  %95 = mul i64 %94, 16
  call void @llvm.memcpy.p0.p0.i64(ptr align 8 %91, ptr align 8 %92, i64 %95, i1 false)
  %96 = load i32, ptr %11, align 4
  %97 = load ptr, ptr %8, align 8
  %98 = getelementptr inbounds %struct.uv_write_s, ptr %97, i32 0, i32 9
  store i32 %96, ptr %98, align 8
  %99 = load ptr, ptr %8, align 8
  %100 = getelementptr inbounds %struct.uv_write_s, ptr %99, i32 0, i32 7
  store i32 0, ptr %100, align 8
  %101 = load ptr, ptr %10, align 8
  %102 = load i32, ptr %11, align 4
  %103 = call i64 @uv__count_bufs(ptr noundef %101, i32 noundef %102)
  %104 = load ptr, ptr %9, align 8
  %105 = getelementptr inbounds %struct.uv_stream_s, ptr %104, i32 0, i32 8
  %106 = load i64, ptr %105, align 8
  %107 = add i64 %106, %103
  store i64 %107, ptr %105, align 8
  br label %108

108:                                              ; preds = %88
  %109 = load ptr, ptr %9, align 8
  %110 = getelementptr inbounds %struct.uv_stream_s, ptr %109, i32 0, i32 14
  %111 = load ptr, ptr %8, align 8
  %112 = getelementptr inbounds %struct.uv_write_s, ptr %111, i32 0, i32 6
  %113 = getelementptr inbounds [2 x ptr], ptr %112, i64 0, i64 0
  store ptr %110, ptr %113, align 8
  %114 = load ptr, ptr %9, align 8
  %115 = getelementptr inbounds %struct.uv_stream_s, ptr %114, i32 0, i32 14
  %116 = getelementptr inbounds [2 x ptr], ptr %115, i64 0, i64 1
  %117 = load ptr, ptr %116, align 8
  %118 = load ptr, ptr %8, align 8
  %119 = getelementptr inbounds %struct.uv_write_s, ptr %118, i32 0, i32 6
  %120 = getelementptr inbounds [2 x ptr], ptr %119, i64 0, i64 1
  store ptr %117, ptr %120, align 8
  %121 = load ptr, ptr %8, align 8
  %122 = getelementptr inbounds %struct.uv_write_s, ptr %121, i32 0, i32 6
  %123 = load ptr, ptr %8, align 8
  %124 = getelementptr inbounds %struct.uv_write_s, ptr %123, i32 0, i32 6
  %125 = getelementptr inbounds [2 x ptr], ptr %124, i64 0, i64 1
  %126 = load ptr, ptr %125, align 8
  %127 = getelementptr inbounds [2 x ptr], ptr %126, i64 0, i64 0
  store ptr %122, ptr %127, align 8
  %128 = load ptr, ptr %8, align 8
  %129 = getelementptr inbounds %struct.uv_write_s, ptr %128, i32 0, i32 6
  %130 = load ptr, ptr %9, align 8
  %131 = getelementptr inbounds %struct.uv_stream_s, ptr %130, i32 0, i32 14
  %132 = getelementptr inbounds [2 x ptr], ptr %131, i64 0, i64 1
  store ptr %129, ptr %132, align 8
  br label %133

133:                                              ; preds = %108
  %134 = load ptr, ptr %9, align 8
  %135 = getelementptr inbounds %struct.uv_stream_s, ptr %134, i32 0, i32 11
  %136 = load ptr, ptr %135, align 8
  %137 = icmp ne ptr %136, null
  br i1 %137, label %138, label %139

138:                                              ; preds = %133
  br label %152

139:                                              ; preds = %133
  %140 = load i32, ptr %14, align 4
  %141 = icmp ne i32 %140, 0
  br i1 %141, label %142, label %144

142:                                              ; preds = %139
  %143 = load ptr, ptr %9, align 8
  call void @uv__write(ptr noundef %143)
  br label %151

144:                                              ; preds = %139
  %145 = load ptr, ptr %9, align 8
  %146 = getelementptr inbounds %struct.uv_stream_s, ptr %145, i32 0, i32 1
  %147 = load ptr, ptr %146, align 8
  %148 = load ptr, ptr %9, align 8
  %149 = getelementptr inbounds %struct.uv_stream_s, ptr %148, i32 0, i32 13
  call void @uv__io_start(ptr noundef %147, ptr noundef %149, i32 noundef 4)
  %150 = load ptr, ptr %9, align 8
  call void @uv__stream_osx_interrupt_select(ptr noundef %150)
  br label %151

151:                                              ; preds = %144, %142
  br label %152

152:                                              ; preds = %151, %138
  store i32 0, ptr %7, align 4
  br label %153

153:                                              ; preds = %152, %87, %22
  %154 = load i32, ptr %7, align 4
  ret i32 %154
}